target datalayout = "e-m:e-p270:32:32-p271:32:32-p272:64:64-i64:64-i128:128-f80:128-n8:16:32:64-S128"
target triple = "x86_64-pc-linux-gnu"

%struct.mbedtls_mpi = type { i32, i64, ptr }

@__const.mbedtls_rsa_deduce_primes.primes = private unnamed_addr constant [54 x i8] c"\02\03\05\07\0B\0D\11\13\17\1D\1F%)+/5;=CGIOSYaegkmq\7F\83\89\8B\95\97\9D\A3\A7\AD\B3\B5\BF\C1\C5\C7\D3\DF\E3\E5\E9\EF\F1\FB", align 16

; Function Attrs: mustprogress uwtable
define hidden i32 @mbedtls_rsa_deduce_primes(ptr noundef %0, ptr noundef %1, ptr noundef %2, ptr noundef %3, ptr noundef %4) #0 {
  %6 = alloca i32, align 4
  %7 = alloca ptr, align 8
  %8 = alloca ptr, align 8
  %9 = alloca ptr, align 8
  %10 = alloca ptr, align 8
  %11 = alloca ptr, align 8
  %12 = alloca i32, align 4
  %13 = alloca i16, align 2
  %14 = alloca i16, align 2
  %15 = alloca i16, align 2
  %16 = alloca %struct.mbedtls_mpi, align 8
  %17 = alloca %struct.mbedtls_mpi, align 8
  %18 = alloca [54 x i8], align 16
  %19 = alloca i64, align 8
  %20 = alloca i32, align 4
  store ptr %0, ptr %7, align 8, !tbaa !3
  store ptr %1, ptr %8, align 8, !tbaa !3
  store ptr %2, ptr %9, align 8, !tbaa !3
  store ptr %3, ptr %10, align 8, !tbaa !3
  store ptr %4, ptr %11, align 8, !tbaa !3
  call void @llvm.lifetime.start.p0(i64 4, ptr %12) #4
  store i32 0, ptr %12, align 4, !tbaa !8
  call void @llvm.lifetime.start.p0(i64 2, ptr %13) #4
  call void @llvm.lifetime.start.p0(i64 2, ptr %14) #4
  call void @llvm.lifetime.start.p0(i64 2, ptr %15) #4
  call void @llvm.lifetime.start.p0(i64 24, ptr %16) #4
  call void @llvm.lifetime.start.p0(i64 24, ptr %17) #4
  call void @llvm.lifetime.start.p0(i64 54, ptr %18) #4
  call void @llvm.memcpy.p0.p0.i64(ptr align 16 %18, ptr align 16 @__const.mbedtls_rsa_deduce_primes.primes, i64 54, i1 false)
  call void @llvm.lifetime.start.p0(i64 8, ptr %19) #4
  store i64 54, ptr %19, align 8, !tbaa !10
  %21 = load ptr, ptr %10, align 8, !tbaa !3
  %22 = icmp eq ptr %21, null
  br i1 %22, label %36, label %23

23:                                               ; preds = %5
  %24 = load ptr, ptr %11, align 8, !tbaa !3
  %25 = icmp eq ptr %24, null
  br i1 %25, label %36, label %26

26:                                               ; preds = %23
  %27 = load ptr, ptr %10, align 8, !tbaa !3
  %28 = getelementptr inbounds nuw %struct.mbedtls_mpi, ptr %27, i32 0, i32 2
  %29 = load ptr, ptr %28, align 8, !tbaa !12
  %30 = icmp ne ptr %29, null
  br i1 %30, label %36, label %31

31:                                               ; preds = %26
  %32 = load ptr, ptr %11, align 8, !tbaa !3
  %33 = getelementptr inbounds nuw %struct.mbedtls_mpi, ptr %32, i32 0, i32 2
  %34 = load ptr, ptr %33, align 8, !tbaa !12
  %35 = icmp ne ptr %34, null
  br i1 %35, label %36, label %37

36:                                               ; preds = %31, %26, %23, %5
  store i32 -4, ptr %6, align 4
  store i32 1, ptr %20, align 4
  br label %218

37:                                               ; preds = %31
  %38 = load ptr, ptr %7, align 8, !tbaa !3
  %39 = call i32 @mbedtls_mpi_cmp_int(ptr noundef %38, i64 noundef 0)
  %40 = icmp sle i32 %39, 0
  br i1 %40, label %59, label %41

41:                                               ; preds = %37
  %42 = load ptr, ptr %9, align 8, !tbaa !3
  %43 = call i32 @mbedtls_mpi_cmp_int(ptr noundef %42, i64 noundef 1)
  %44 = icmp sle i32 %43, 0
  br i1 %44, label %59, label %45

45:                                               ; preds = %41
  %46 = load ptr, ptr %9, align 8, !tbaa !3
  %47 = load ptr, ptr %7, align 8, !tbaa !3
  %48 = call i32 @mbedtls_mpi_cmp_mpi(ptr noundef %46, ptr noundef %47)
  %49 = icmp sge i32 %48, 0
  br i1 %49, label %59, label %50

50:                                               ; preds = %45
  %51 = load ptr, ptr %8, align 8, !tbaa !3
  %52 = call i32 @mbedtls_mpi_cmp_int(ptr noundef %51, i64 noundef 1)
  %53 = icmp sle i32 %52, 0
  br i1 %53, label %59, label %54

54:                                               ; preds = %50
  %55 = load ptr, ptr %8, align 8, !tbaa !3
  %56 = load ptr, ptr %7, align 8, !tbaa !3
  %57 = call i32 @mbedtls_mpi_cmp_mpi(ptr noundef %55, ptr noundef %56)
  %58 = icmp sge i32 %57, 0
  br i1 %58, label %59, label %60

59:                                               ; preds = %54, %50, %45, %41, %37
  store i32 -4, ptr %6, align 4
  store i32 1, ptr %20, align 4
  br label %218

60:                                               ; preds = %54
  call void @mbedtls_mpi_init(ptr noundef %17)
  call void @mbedtls_mpi_init(ptr noundef %16)
  br label %61

61:                                               ; preds = %60
  %62 = load ptr, ptr %9, align 8, !tbaa !3
  %63 = load ptr, ptr %8, align 8, !tbaa !3
  %64 = call i32 @mbedtls_mpi_mul_mpi(ptr noundef %16, ptr noundef %62, ptr noundef %63)
  store i32 %64, ptr %12, align 4, !tbaa !8
  %65 = icmp ne i32 %64, 0
  br i1 %65, label %66, label %67

66:                                               ; preds = %61
  br label %216

67:                                               ; preds = %61
  br label %68

68:                                               ; preds = %67
  br label %69

69:                                               ; preds = %68
  br label %70

70:                                               ; preds = %69
  %71 = call i32 @mbedtls_mpi_sub_int(ptr noundef %16, ptr noundef %16, i64 noundef 1)
  store i32 %71, ptr %12, align 4, !tbaa !8
  %72 = icmp ne i32 %71, 0
  br i1 %72, label %73, label %74

73:                                               ; preds = %70
  br label %216

74:                                               ; preds = %70
  br label %75

75:                                               ; preds = %74
  br label %76

76:                                               ; preds = %75
  %77 = call i64 @mbedtls_mpi_lsb(ptr noundef %16)
  %78 = trunc i64 %77 to i16
  store i16 %78, ptr %15, align 2, !tbaa !15
  %79 = zext i16 %78 to i32
  %80 = icmp eq i32 %79, 0
  br i1 %80, label %81, label %82

81:                                               ; preds = %76
  store i32 -4, ptr %12, align 4, !tbaa !8
  br label %216

82:                                               ; preds = %76
  br label %83

83:                                               ; preds = %82
  %84 = load i16, ptr %15, align 2, !tbaa !15
  %85 = zext i16 %84 to i64
  %86 = call i32 @mbedtls_mpi_shift_r(ptr noundef %16, i64 noundef %85)
  store i32 %86, ptr %12, align 4, !tbaa !8
  %87 = icmp ne i32 %86, 0
  br i1 %87, label %88, label %89

88:                                               ; preds = %83
  br label %216

89:                                               ; preds = %83
  br label %90

90:                                               ; preds = %89
  br label %91

91:                                               ; preds = %90
  store i16 0, ptr %13, align 2, !tbaa !15
  %92 = load ptr, ptr %7, align 8, !tbaa !3
  %93 = getelementptr inbounds nuw %struct.mbedtls_mpi, ptr %92, i32 0, i32 2
  %94 = load ptr, ptr %93, align 8, !tbaa !12
  %95 = getelementptr inbounds i64, ptr %94, i64 0
  %96 = load i64, ptr %95, align 8, !tbaa !10
  %97 = urem i64 %96, 8
  %98 = icmp eq i64 %97, 1
  br i1 %98, label %99, label %100

99:                                               ; preds = %91
  store i16 1, ptr %13, align 2, !tbaa !15
  br label %100

100:                                              ; preds = %99, %91
  br label %101

101:                                              ; preds = %212, %100
  %102 = load i16, ptr %13, align 2, !tbaa !15
  %103 = zext i16 %102 to i64
  %104 = icmp ult i64 %103, 54
  br i1 %104, label %105, label %215

105:                                              ; preds = %101
  %106 = load i16, ptr %13, align 2, !tbaa !15
  %107 = zext i16 %106 to i64
  %108 = getelementptr inbounds nuw [54 x i8], ptr %18, i64 0, i64 %107
  %109 = load i8, ptr %108, align 1, !tbaa !17
  %110 = zext i8 %109 to i64
  %111 = call i32 @mbedtls_mpi_lset(ptr noundef %17, i64 noundef %110)
  br label %112

112:                                              ; preds = %105
  %113 = load ptr, ptr %10, align 8, !tbaa !3
  %114 = load ptr, ptr %7, align 8, !tbaa !3
  %115 = call i32 @mbedtls_mpi_gcd(ptr noundef %113, ptr noundef %17, ptr noundef %114)
  store i32 %115, ptr %12, align 4, !tbaa !8
  %116 = icmp ne i32 %115, 0
  br i1 %116, label %117, label %118

117:                                              ; preds = %112
  br label %216

118:                                              ; preds = %112
  br label %119

119:                                              ; preds = %118
  br label %120

120:                                              ; preds = %119
  %121 = load ptr, ptr %10, align 8, !tbaa !3
  %122 = call i32 @mbedtls_mpi_cmp_int(ptr noundef %121, i64 noundef 1)
  %123 = icmp ne i32 %122, 0
  br i1 %123, label %124, label %125

124:                                              ; preds = %120
  br label %212

125:                                              ; preds = %120
  br label %126

126:                                              ; preds = %125
  %127 = load ptr, ptr %7, align 8, !tbaa !3
  %128 = load ptr, ptr %11, align 8, !tbaa !3
  %129 = call i32 @mbedtls_mpi_exp_mod(ptr noundef %17, ptr noundef %17, ptr noundef %16, ptr noundef %127, ptr noundef %128)
  store i32 %129, ptr %12, align 4, !tbaa !8
  %130 = icmp ne i32 %129, 0
  br i1 %130, label %131, label %132

131:                                              ; preds = %126
  br label %216

132:                                              ; preds = %126
  br label %133

133:                                              ; preds = %132
  br label %134

134:                                              ; preds = %133
  store i16 1, ptr %14, align 2, !tbaa !15
  br label %135

135:                                              ; preds = %204, %134
  %136 = load i16, ptr %14, align 2, !tbaa !15
  %137 = zext i16 %136 to i32
  %138 = load i16, ptr %15, align 2, !tbaa !15
  %139 = zext i16 %138 to i32
  %140 = icmp sle i32 %137, %139
  br i1 %140, label %141, label %207

141:                                              ; preds = %135
  %142 = call i32 @mbedtls_mpi_cmp_int(ptr noundef %17, i64 noundef 1)
  %143 = icmp eq i32 %142, 0
  br i1 %143, label %144, label %145

144:                                              ; preds = %141
  br label %207

145:                                              ; preds = %141
  br label %146

146:                                              ; preds = %145
  %147 = call i32 @mbedtls_mpi_add_int(ptr noundef %17, ptr noundef %17, i64 noundef 1)
  store i32 %147, ptr %12, align 4, !tbaa !8
  %148 = icmp ne i32 %147, 0
  br i1 %148, label %149, label %150

149:                                              ; preds = %146
  br label %216

150:                                              ; preds = %146
  br label %151

151:                                              ; preds = %150
  br label %152

152:                                              ; preds = %151
  br label %153

153:                                              ; preds = %152
  %154 = load ptr, ptr %10, align 8, !tbaa !3
  %155 = load ptr, ptr %7, align 8, !tbaa !3
  %156 = call i32 @mbedtls_mpi_gcd(ptr noundef %154, ptr noundef %17, ptr noundef %155)
  store i32 %156, ptr %12, align 4, !tbaa !8
  %157 = icmp ne i32 %156, 0
  br i1 %157, label %158, label %159

158:                                              ; preds = %153
  br label %216

159:                                              ; preds = %153
  br label %160

160:                                              ; preds = %159
  br label %161

161:                                              ; preds = %160
  %162 = load ptr, ptr %10, align 8, !tbaa !3
  %163 = call i32 @mbedtls_mpi_cmp_int(ptr noundef %162, i64 noundef 1)
  %164 = icmp eq i32 %163, 1
  br i1 %164, label %165, label %181

165:                                              ; preds = %161
  %166 = load ptr, ptr %10, align 8, !tbaa !3
  %167 = load ptr, ptr %7, align 8, !tbaa !3
  %168 = call i32 @mbedtls_mpi_cmp_mpi(ptr noundef %166, ptr noundef %167)
  %169 = icmp eq i32 %168, -1
  br i1 %169, label %170, label %181

170:                                              ; preds = %165
  br label %171

171:                                              ; preds = %170
  %172 = load ptr, ptr %11, align 8, !tbaa !3
  %173 = load ptr, ptr %7, align 8, !tbaa !3
  %174 = load ptr, ptr %10, align 8, !tbaa !3
  %175 = call i32 @mbedtls_mpi_div_mpi(ptr noundef %172, ptr noundef null, ptr noundef %173, ptr noundef %174)
  store i32 %175, ptr %12, align 4, !tbaa !8
  %176 = icmp ne i32 %175, 0
  br i1 %176, label %177, label %178

177:                                              ; preds = %171
  br label %216

178:                                              ; preds = %171
  br label %179

179:                                              ; preds = %178
  br label %180

180:                                              ; preds = %179
  br label %216

181:                                              ; preds = %165, %161
  br label %182

182:                                              ; preds = %181
  %183 = call i32 @mbedtls_mpi_sub_int(ptr noundef %17, ptr noundef %17, i64 noundef 1)
  store i32 %183, ptr %12, align 4, !tbaa !8
  %184 = icmp ne i32 %183, 0
  br i1 %184, label %185, label %186

185:                                              ; preds = %182
  br label %216

186:                                              ; preds = %182
  br label %187

187:                                              ; preds = %186
  br label %188

188:                                              ; preds = %187
  br label %189

189:                                              ; preds = %188
  %190 = call i32 @mbedtls_mpi_mul_mpi(ptr noundef %17, ptr noundef %17, ptr noundef %17)
  store i32 %190, ptr %12, align 4, !tbaa !8
  %191 = icmp ne i32 %190, 0
  br i1 %191, label %192, label %193

192:                                              ; preds = %189
  br label %216

193:                                              ; preds = %189
  br label %194

194:                                              ; preds = %193
  br label %195

195:                                              ; preds = %194
  br label %196

196:                                              ; preds = %195
  %197 = load ptr, ptr %7, align 8, !tbaa !3
  %198 = call i32 @mbedtls_mpi_mod_mpi(ptr noundef %17, ptr noundef %17, ptr noundef %197)
  store i32 %198, ptr %12, align 4, !tbaa !8
  %199 = icmp ne i32 %198, 0
  br i1 %199, label %200, label %201

200:                                              ; preds = %196
  br label %216

201:                                              ; preds = %196
  br label %202

202:                                              ; preds = %201
  br label %203

203:                                              ; preds = %202
  br label %204

204:                                              ; preds = %203
  %205 = load i16, ptr %14, align 2, !tbaa !15
  %206 = add i16 %205, 1
  store i16 %206, ptr %14, align 2, !tbaa !15
  br label %135, !llvm.loop !18

207:                                              ; preds = %144, %135
  %208 = call i32 @mbedtls_mpi_cmp_int(ptr noundef %17, i64 noundef 1)
  %209 = icmp ne i32 %208, 0
  br i1 %209, label %210, label %211

210:                                              ; preds = %207
  br label %215

211:                                              ; preds = %207
  br label %212

212:                                              ; preds = %211, %124
  %213 = load i16, ptr %13, align 2, !tbaa !15
  %214 = add i16 %213, 1
  store i16 %214, ptr %13, align 2, !tbaa !15
  br label %101, !llvm.loop !20

215:                                              ; preds = %210, %101
  store i32 -4, ptr %12, align 4, !tbaa !8
  br label %216

216:                                              ; preds = %215, %200, %192, %185, %180, %177, %158, %149, %131, %117, %88, %81, %73, %66
  call void @mbedtls_mpi_free(ptr noundef %17)
  call void @mbedtls_mpi_free(ptr noundef %16)
  %217 = load i32, ptr %12, align 4, !tbaa !8
  store i32 %217, ptr %6, align 4
  store i32 1, ptr %20, align 4
  br label %218

218:                                              ; preds = %216, %59, %36
  call void @llvm.lifetime.end.p0(i64 8, ptr %19) #4
  call void @llvm.lifetime.end.p0(i64 54, ptr %18) #4
  call void @llvm.lifetime.end.p0(i64 24, ptr %17) #4
  call void @llvm.lifetime.end.p0(i64 24, ptr %16) #4
  call void @llvm.lifetime.end.p0(i64 2, ptr %15) #4
  call void @llvm.lifetime.end.p0(i64 2, ptr %14) #4
  call void @llvm.lifetime.end.p0(i64 2, ptr %13) #4
  call void @llvm.lifetime.end.p0(i64 4, ptr %12) #4
  %219 = load i32, ptr %6, align 4
  ret i32 %219
}